; Function Attrs: inlinehint nounwind uwtable
define internal void @_ZTv0_n24_N8QuantLib12_GLOBAL__N_122AverageBMACouponPricerD1Ev(ptr noundef %this) unnamed_addr #20 align 2 {
entry:
  %vtable = load ptr, ptr %this, align 8, !tbaa !33
  %0 = getelementptr inbounds i8, ptr %vtable, i64 -24
  %1 = load i64, ptr %0, align 8
  %2 = getelementptr inbounds i8, ptr %this, i64 %1
  tail call void @_ZN8QuantLib12_GLOBAL__N_122AverageBMACouponPricerD1Ev(ptr noundef nonnull align 8 dereferenceable(16) %2) #32
  ret void
}